; Function Attrs: mustprogress nofree norecurse nosync nounwind willreturn memory(readwrite, inaccessiblemem: none) uwtable
define hidden void @_ZN9Assembler7palignrE11XMMRegisterS0_i(ptr noundef nonnull align 8 dereferenceable(40) %0, i32 %1, i32 %2, i32 noundef %3) local_unnamed_addr #8 align 2 {
  %5 = alloca %class.InstructionAttr, align 8
  %6 = getelementptr inbounds i8, ptr %0, i64 24
  %7 = load i8, ptr %6, align 8
  %8 = trunc i8 %7 to i1
  store i8 0, ptr %5, align 8
  %9 = getelementptr inbounds i8, ptr %5, i64 1
  %10 = load i32, ptr @UseAVX, align 4
  %11 = icmp slt i32 %10, 3
  %12 = or i1 %11, %8
  %13 = zext i1 %12 to i8
  store i8 %13, ptr %9, align 1
  %14 = getelementptr inbounds i8, ptr %5, i64 2
  store <4 x i8> <i8 1, i8 1, i8 0, i8 0>, ptr %14, align 2
  %15 = getelementptr inbounds i8, ptr %5, i64 6
  store i8 1, ptr %15, align 2
  %16 = getelementptr inbounds i8, ptr %5, i64 7
  store i8 0, ptr %16, align 1
  %17 = getelementptr inbounds i8, ptr %5, i64 8
  store <4 x i32> <i32 0, i32 24, i32 4, i32 0>, ptr %17, align 8
  %18 = getelementptr inbounds i8, ptr %5, i64 24
  store i32 0, ptr %18, align 8
  %19 = getelementptr inbounds i8, ptr %5, i64 32
  store ptr null, ptr %19, align 8
  %20 = sext i32 %1 to i64
  %21 = getelementptr inbounds %"class.XMMRegister::XMMRegisterImpl", ptr getelementptr inbounds (i8, ptr @all_XMMRegisterImpls, i64 1), i64 %20
  %22 = ptrtoint ptr %21 to i64
  %23 = trunc i64 %22 to i32
  %24 = sub i32 %23, ptrtoint (ptr getelementptr inbounds (i8, ptr @all_XMMRegisterImpls, i64 1) to i32)
  %25 = sext i32 %2 to i64
  %26 = getelementptr inbounds %"class.XMMRegister::XMMRegisterImpl", ptr getelementptr inbounds (i8, ptr @all_XMMRegisterImpls, i64 1), i64 %25
  %27 = ptrtoint ptr %26 to i64
  %28 = trunc i64 %27 to i32
  %29 = sub i32 %28, ptrtoint (ptr getelementptr inbounds (i8, ptr @all_XMMRegisterImpls, i64 1) to i32)
  %30 = icmp sgt i32 %10, 0
  br i1 %30, label %31, label %34

31:                                               ; preds = %4
  %32 = icmp ult i32 %24, 32
  %spec.select.i = select i1 %32, i32 %24, i32 0
  %33 = call noundef i32 @_ZN9Assembler21vex_prefix_and_encodeEiiiNS_13VexSimdPrefixENS_9VexOpcodeEP15InstructionAttrb(ptr noundef nonnull align 8 dereferenceable(40) %0, i32 noundef %24, i32 noundef %spec.select.i, i32 noundef %29, i32 noundef 1, i32 noundef 3, ptr noundef nonnull %5, i1 noundef zeroext false)
  br label %_ZN9Assembler22simd_prefix_and_encodeE11XMMRegisterS0_S0_NS_13VexSimdPrefixENS_9VexOpcodeEP15InstructionAttrb.exit

34:                                               ; preds = %4
  %35 = tail call noundef i32 @_ZN9Assembler21rex_prefix_and_encodeEiiNS_13VexSimdPrefixENS_9VexOpcodeEb(ptr noundef nonnull align 8 dereferenceable(40) %0, i32 noundef %24, i32 noundef %29, i32 noundef 1, i32 noundef 3, i1 noundef zeroext false)
  br label %_ZN9Assembler22simd_prefix_and_encodeE11XMMRegisterS0_S0_NS_13VexSimdPrefixENS_9VexOpcodeEP15InstructionAttrb.exit

_ZN9Assembler22simd_prefix_and_encodeE11XMMRegisterS0_S0_NS_13VexSimdPrefixENS_9VexOpcodeEP15InstructionAttrb.exit: ; preds = %31, %34
  %.0.i = phi i32 [ %33, %31 ], [ %35, %34 ]
  %36 = getelementptr inbounds i8, ptr %0, i64 8
  %37 = load ptr, ptr %36, align 8
  %38 = trunc i32 %.0.i to i8
  %.0.i3.i = or i8 %38, -64
  %.0.i4.i = trunc i32 %3 to i8
  %39 = getelementptr inbounds i8, ptr %37, i64 16
  %40 = load ptr, ptr %39, align 8
  %41 = getelementptr inbounds i8, ptr %40, i64 1
  store i8 15, ptr %40, align 1
  %42 = getelementptr inbounds i8, ptr %40, i64 2
  store i8 %.0.i3.i, ptr %41, align 1
  %43 = getelementptr inbounds i8, ptr %40, i64 3
  store i8 %.0.i4.i, ptr %42, align 1
  store ptr %43, ptr %39, align 8
  %44 = load ptr, ptr %19, align 8
  %.not.i = icmp eq ptr %44, null
  br i1 %.not.i, label %_ZN15InstructionAttrD2Ev.exit, label %45

45:                                               ; preds = %_ZN9Assembler22simd_prefix_and_encodeE11XMMRegisterS0_S0_NS_13VexSimdPrefixENS_9VexOpcodeEP15InstructionAttrb.exit
  %46 = getelementptr inbounds i8, ptr %44, i64 32
  store ptr null, ptr %46, align 8
  br label %_ZN15InstructionAttrD2Ev.exit

_ZN15InstructionAttrD2Ev.exit:                    ; preds = %_ZN9Assembler22simd_prefix_and_encodeE11XMMRegisterS0_S0_NS_13VexSimdPrefixENS_9VexOpcodeEP15InstructionAttrb.exit, %45
  ret void
}